target datalayout = "e-m:e-p270:32:32-p271:32:32-p272:64:64-i64:64-i128:128-f80:128-n8:16:32:64-S128"
target triple = "x86_64-pc-linux-gnu"

%"class.cv::tinyxml2::XMLPrinter" = type { %"class.cv::tinyxml2::XMLVisitor", i8, %"class.cv::tinyxml2::DynArray.6", i8, ptr, i32, i32, i8, i8, [64 x i8], [64 x i8], [6 x i8], %"class.cv::tinyxml2::DynArray.7" }
%"class.cv::tinyxml2::XMLVisitor" = type { ptr }
%"class.cv::tinyxml2::DynArray.6" = type { ptr, [10 x ptr], i32, i32 }
%"class.cv::tinyxml2::DynArray.7" = type <{ ptr, [20 x i8], i32, i32, [4 x i8] }>

@.str.26 = private unnamed_addr constant [2 x i8] c"\0A\00", align 1
@.str.30 = private unnamed_addr constant [3 x i8] c"/>\00", align 1
@.str.31 = private unnamed_addr constant [6 x i8] c"</%s>\00", align 1

; Function Attrs: mustprogress nounwind uwtable
define linkonce_odr hidden noundef ptr @_ZN2cv8tinyxml28DynArrayIPKcLi10EE3PopEv(ptr noundef nonnull align 8 dereferenceable(96) %0) #0 comdat align 2 {
  %2 = alloca ptr, align 8
  store ptr %0, ptr %2, align 8, !tbaa !201
  %3 = load ptr, ptr %2, align 8
  %4 = getelementptr inbounds nuw %"class.cv::tinyxml2::DynArray.6", ptr %3, i32 0, i32 0
  %5 = load ptr, ptr %4, align 8, !tbaa !203
  %6 = getelementptr inbounds nuw %"class.cv::tinyxml2::DynArray.6", ptr %3, i32 0, i32 3
  %7 = load i32, ptr %6, align 4, !tbaa !205
  %8 = add nsw i32 %7, -1
  store i32 %8, ptr %6, align 4, !tbaa !205
  %9 = sext i32 %8 to i64
  %10 = getelementptr inbounds ptr, ptr %5, i64 %9
  %11 = load ptr, ptr %10, align 8, !tbaa !14
  ret ptr %11
}

; Function Attrs: mustprogress uwtable
define hidden void @_ZN2cv8tinyxml210XMLPrinter12CloseElementEb(ptr noundef nonnull align 8 dereferenceable(312) %0, i1 noundef zeroext %1) unnamed_addr #3 align 2 {
  %3 = alloca ptr, align 8
  %4 = alloca i8, align 1
  %5 = alloca ptr, align 8
  store ptr %0, ptr %3, align 8, !tbaa !185
  %6 = zext i1 %1 to i8
  store i8 %6, ptr %4, align 1, !tbaa !37
  %7 = load ptr, ptr %3, align 8
  %8 = getelementptr inbounds nuw %"class.cv::tinyxml2::XMLPrinter", ptr %7, i32 0, i32 5
  %9 = load i32, ptr %8, align 8, !tbaa !195
  %10 = add nsw i32 %9, -1
  store i32 %10, ptr %8, align 8, !tbaa !195
  call void @llvm.lifetime.start.p0(i64 8, ptr %5) #17
  %11 = getelementptr inbounds nuw %"class.cv::tinyxml2::XMLPrinter", ptr %7, i32 0, i32 2
  %12 = call noundef ptr @_ZN2cv8tinyxml28DynArrayIPKcLi10EE3PopEv(ptr noundef nonnull align 8 dereferenceable(96) %11)
  store ptr %12, ptr %5, align 8, !tbaa !14
  %13 = getelementptr inbounds nuw %"class.cv::tinyxml2::XMLPrinter", ptr %7, i32 0, i32 1
  %14 = load i8, ptr %13, align 8, !tbaa !187, !range !39, !noundef !40
  %15 = trunc i8 %14 to i1
  br i1 %15, label %16, label %17

16:                                               ; preds = %2
  call void (ptr, ptr, ...) @_ZN2cv8tinyxml210XMLPrinter5PrintEPKcz(ptr noundef nonnull align 8 dereferenceable(312) %7, ptr noundef @.str.30)
  br label %32

17:                                               ; preds = %2
  %18 = getelementptr inbounds nuw %"class.cv::tinyxml2::XMLPrinter", ptr %7, i32 0, i32 6
  %19 = load i32, ptr %18, align 4, !tbaa !196
  %20 = icmp slt i32 %19, 0
  br i1 %20, label %21, label %30

21:                                               ; preds = %17
  %22 = load i8, ptr %4, align 1, !tbaa !37, !range !39, !noundef !40
  %23 = trunc i8 %22 to i1
  br i1 %23, label %30, label %24

24:                                               ; preds = %21
  call void (ptr, ptr, ...) @_ZN2cv8tinyxml210XMLPrinter5PrintEPKcz(ptr noundef nonnull align 8 dereferenceable(312) %7, ptr noundef @.str.26)
  %25 = getelementptr inbounds nuw %"class.cv::tinyxml2::XMLPrinter", ptr %7, i32 0, i32 5
  %26 = load i32, ptr %25, align 8, !tbaa !195
  %27 = load ptr, ptr %7, align 8, !tbaa !92
  %28 = getelementptr inbounds ptr, ptr %27, i64 12
  %29 = load ptr, ptr %28, align 8
  call void %29(ptr noundef nonnull align 8 dereferenceable(312) %7, i32 noundef %26)
  br label %30

30:                                               ; preds = %24, %21, %17
  %31 = load ptr, ptr %5, align 8, !tbaa !14
  call void (ptr, ptr, ...) @_ZN2cv8tinyxml210XMLPrinter5PrintEPKcz(ptr noundef nonnull align 8 dereferenceable(312) %7, ptr noundef @.str.31, ptr noundef %31)
  br label %32

32:                                               ; preds = %30, %16
  %33 = getelementptr inbounds nuw %"class.cv::tinyxml2::XMLPrinter", ptr %7, i32 0, i32 6
  %34 = load i32, ptr %33, align 4, !tbaa !196
  %35 = getelementptr inbounds nuw %"class.cv::tinyxml2::XMLPrinter", ptr %7, i32 0, i32 5
  %36 = load i32, ptr %35, align 8, !tbaa !195
  %37 = icmp eq i32 %34, %36
  br i1 %37, label %38, label %40

38:                                               ; preds = %32
  %39 = getelementptr inbounds nuw %"class.cv::tinyxml2::XMLPrinter", ptr %7, i32 0, i32 6
  store i32 -1, ptr %39, align 4, !tbaa !196
  br label %40

40:                                               ; preds = %38, %32
  %41 = getelementptr inbounds nuw %"class.cv::tinyxml2::XMLPrinter", ptr %7, i32 0, i32 5
  %42 = load i32, ptr %41, align 8, !tbaa !195
  %43 = icmp eq i32 %42, 0
  br i1 %43, label %44, label %48

44:                                               ; preds = %40
  %45 = load i8, ptr %4, align 1, !tbaa !37, !range !39, !noundef !40
  %46 = trunc i8 %45 to i1
  br i1 %46, label %48, label %47

47:                                               ; preds = %44
  call void (ptr, ptr, ...) @_ZN2cv8tinyxml210XMLPrinter5PrintEPKcz(ptr noundef nonnull align 8 dereferenceable(312) %7, ptr noundef @.str.26)
  br label %48

48:                                               ; preds = %47, %44, %40
  %49 = getelementptr inbounds nuw %"class.cv::tinyxml2::XMLPrinter", ptr %7, i32 0, i32 1
  store i8 0, ptr %49, align 8, !tbaa !187
  call void @llvm.lifetime.end.p0(i64 8, ptr %5) #17
  ret void
}