; Function Attrs: mustprogress uwtable
define hidden void @_ZN2cv8tinyxml210XMLPrinter12CloseElementEb(ptr noundef nonnull align 8 dereferenceable(312) %0, i1 noundef zeroext %1) unnamed_addr #4 align 2 {
  %3 = getelementptr inbounds nuw i8, ptr %0, i64 128
  %4 = load i32, ptr %3, align 8, !tbaa !165
  %5 = add nsw i32 %4, -1
  store i32 %5, ptr %3, align 8, !tbaa !165
  %6 = getelementptr inbounds nuw i8, ptr %0, i64 16
  %7 = load ptr, ptr %6, align 8, !tbaa !160
  %8 = getelementptr inbounds nuw i8, ptr %0, i64 108
  %9 = load i32, ptr %8, align 4, !tbaa !162
  %10 = add nsw i32 %9, -1
  store i32 %10, ptr %8, align 4, !tbaa !162
  %11 = sext i32 %10 to i64
  %12 = getelementptr inbounds ptr, ptr %7, i64 %11
  %13 = load ptr, ptr %12, align 8, !tbaa !115
  %14 = getelementptr inbounds nuw i8, ptr %0, i64 8
  %15 = load i8, ptr %14, align 8, !tbaa !153, !range !119, !noundef !120
  %16 = trunc nuw i8 %15 to i1
  br i1 %16, label %17, label %18

17:                                               ; preds = %2
  tail call void (ptr, ptr, ...) @_ZN2cv8tinyxml210XMLPrinter5PrintEPKcz(ptr noundef nonnull align 8 dereferenceable(312) %0, ptr noundef nonnull @.str.30)
  br label %28

18:                                               ; preds = %2
  %19 = getelementptr inbounds nuw i8, ptr %0, i64 132
  %20 = load i32, ptr %19, align 4, !tbaa !166
  %21 = icmp sgt i32 %20, -1
  %brmerge = or i1 %1, %21
  br i1 %brmerge, label %27, label %22

22:                                               ; preds = %18
  tail call void (ptr, ptr, ...) @_ZN2cv8tinyxml210XMLPrinter5PrintEPKcz(ptr noundef nonnull align 8 dereferenceable(312) %0, ptr noundef nonnull @.str.26)
  %23 = load i32, ptr %3, align 8, !tbaa !165
  %24 = load ptr, ptr %0, align 8, !tbaa !39
  %25 = getelementptr inbounds nuw i8, ptr %24, i64 96
  %26 = load ptr, ptr %25, align 8
  tail call void %26(ptr noundef nonnull align 8 dereferenceable(312) %0, i32 noundef %23)
  br label %27

27:                                               ; preds = %18, %22
  tail call void (ptr, ptr, ...) @_ZN2cv8tinyxml210XMLPrinter5PrintEPKcz(ptr noundef nonnull align 8 dereferenceable(312) %0, ptr noundef nonnull @.str.31, ptr noundef %13)
  br label %28

28:                                               ; preds = %27, %17
  %29 = getelementptr inbounds nuw i8, ptr %0, i64 132
  %30 = load i32, ptr %29, align 4, !tbaa !166
  %31 = load i32, ptr %3, align 8, !tbaa !165
  %32 = icmp eq i32 %30, %31
  br i1 %32, label %33, label %34

33:                                               ; preds = %28
  store i32 -1, ptr %29, align 4, !tbaa !166
  br label %34

34:                                               ; preds = %33, %28
  %35 = icmp ne i32 %31, 0
  %brmerge4 = or i1 %1, %35
  br i1 %brmerge4, label %37, label %36

36:                                               ; preds = %34
  tail call void (ptr, ptr, ...) @_ZN2cv8tinyxml210XMLPrinter5PrintEPKcz(ptr noundef nonnull align 8 dereferenceable(312) %0, ptr noundef nonnull @.str.26)
  br label %37

37:                                               ; preds = %34, %36
  store i8 0, ptr %14, align 8, !tbaa !153
  ret void
}